---
triple:          'arm64-apple-darwin'
binary-path:     '/Users/cem/Documents/Personal Stuff/Meal Tracker code/Meal Tracker/Build/Products/Release/Meal Tracker'
relocations:
  - { offset: 0x26, size: 0x8, addend: 0x0, symName: __ZN6MacrosC2Ev, symObjAddr: 0x0, symBinAddr: 0x100003ACC, symSize: 0x10 }
  - { offset: 0x49A8, size: 0x8, addend: 0x0, symName: __ZN6MacrosC2Ev, symObjAddr: 0x0, symBinAddr: 0x100003ACC, symSize: 0x10 }
  - { offset: 0x49E6, size: 0x8, addend: 0x0, symName: __ZN6MacrosD2Ev, symObjAddr: 0x20, symBinAddr: 0x100003ADC, symSize: 0x4 }
  - { offset: 0x4A0F, size: 0x8, addend: 0x0, symName: __ZN6MacrosC2ERKS_, symObjAddr: 0x28, symBinAddr: 0x100003AE0, symSize: 0x1C }
  - { offset: 0x4A5A, size: 0x8, addend: 0x0, symName: __ZN6Macros11setCaloriesEi, symObjAddr: 0x60, symBinAddr: 0x100003AFC, symSize: 0x8 }
  - { offset: 0x4A8C, size: 0x8, addend: 0x0, symName: __ZN6Macros10setProteinEd, symObjAddr: 0x68, symBinAddr: 0x100003B04, symSize: 0x8 }
  - { offset: 0x4ABF, size: 0x8, addend: 0x0, symName: __ZN6Macros8setCarbsEd, symObjAddr: 0x70, symBinAddr: 0x100003B0C, symSize: 0x8 }
  - { offset: 0x4AF2, size: 0x8, addend: 0x0, symName: __ZN6Macros7setFatsEd, symObjAddr: 0x78, symBinAddr: 0x100003B14, symSize: 0x8 }
  - { offset: 0x4B25, size: 0x8, addend: 0x0, symName: __ZNK6Macros11getCaloriesEv, symObjAddr: 0x80, symBinAddr: 0x100003B1C, symSize: 0x8 }
  - { offset: 0x4B4C, size: 0x8, addend: 0x0, symName: __ZNK6Macros11getProteinsEv, symObjAddr: 0x88, symBinAddr: 0x100003B24, symSize: 0x8 }
  - { offset: 0x4B71, size: 0x8, addend: 0x0, symName: __ZNK6Macros8getCarbsEv, symObjAddr: 0x90, symBinAddr: 0x100003B2C, symSize: 0x8 }
  - { offset: 0x4B96, size: 0x8, addend: 0x0, symName: __ZNK6Macros7getFatsEv, symObjAddr: 0x98, symBinAddr: 0x100003B34, symSize: 0x8 }
  - { offset: 0x4BBB, size: 0x8, addend: 0x0, symName: __ZN6MacrosaSERKS_, symObjAddr: 0xA0, symBinAddr: 0x100003B3C, symSize: 0x24 }
  - { offset: 0x9B1A, size: 0x8, addend: 0x0, symName: __ZNSt3__124__put_character_sequenceB8ne180100IcNS_11char_traitsIcEEEERNS_13basic_ostreamIT_T0_EES7_PKS4_m, symObjAddr: 0x7F88, symBinAddr: 0x10000BAE8, symSize: 0x168 }
  - { offset: 0xDC7A, size: 0x8, addend: 0x0, symName: __ZNSt3__111__sift_downB8ne180100INS_17_ClassicAlgPolicyERPFbR4FoodS3_EPS2_EEvT1_OT0_NS_15iterator_traitsIS8_E15difference_typeES8_, symObjAddr: 0x8928, symBinAddr: 0x10000C488, symSize: 0x164 }
  - { offset: 0xDD95, size: 0x8, addend: 0x0, symName: __ZNSt3__117__floyd_sift_downB8ne180100INS_17_ClassicAlgPolicyERPFbR4FoodS3_EPS2_EET1_S8_OT0_NS_15iterator_traitsIS8_E15difference_typeE, symObjAddr: 0x8B58, symBinAddr: 0x10000C6B8, symSize: 0xB0 }
  - { offset: 0xDE52, size: 0x8, addend: 0x0, symName: __ZNSt3__111__introsortINS_17_ClassicAlgPolicyERPFbR4FoodS3_EPS2_Lb0EEEvT1_S8_T0_NS_15iterator_traitsIS8_E15difference_typeEb, symObjAddr: 0x8CDC, symBinAddr: 0x10000C83C, symSize: 0x2C0 }
  - { offset: 0xE288, size: 0x8, addend: 0x0, symName: __ZNSt3__126__insertion_sort_unguardedB8ne180100INS_17_ClassicAlgPolicyERPFbR4FoodS3_EPS2_EEvT1_S8_T0_, symObjAddr: 0x9094, symBinAddr: 0x10000CBF4, symSize: 0xD0 }
  - { offset: 0xE3A0, size: 0x8, addend: 0x0, symName: __ZNSt3__131__partition_with_equals_on_leftB8ne180100INS_17_ClassicAlgPolicyEP4FoodRPFbRS2_S4_EEET0_S8_S8_T1_, symObjAddr: 0x92A8, symBinAddr: 0x10000CE08, symSize: 0x198 }
  - { offset: 0xE4FE, size: 0x8, addend: 0x0, symName: __ZNSt3__132__partition_with_equals_on_rightB8ne180100INS_17_ClassicAlgPolicyEP4FoodRPFbRS2_S4_EEENS_4pairIT0_bEES9_S9_T1_, symObjAddr: 0x9440, symBinAddr: 0x10000CFA0, symSize: 0x18C }
  - { offset: 0xE64F, size: 0x8, addend: 0x0, symName: __ZNSt3__127__insertion_sort_incompleteB8ne180100INS_17_ClassicAlgPolicyERPFbR4FoodS3_EPS2_EEbT1_S8_T0_, symObjAddr: 0x95CC, symBinAddr: 0x10000D12C, symSize: 0x1E0 }
  - { offset: 0x10556, size: 0x8, addend: 0x0, symName: __ZNSt3__17getlineB8ne180100IcNS_11char_traitsIcEENS_9allocatorIcEEEERNS_13basic_istreamIT_T0_EES9_RNS_12basic_stringIS6_S7_T1_EES6_, symObjAddr: 0x61E0, symBinAddr: 0x100009D40, symSize: 0x184 }
  - { offset: 0x10A64, size: 0x8, addend: 0x0, symName: __ZNSt3__1rsB8ne180100IcNS_11char_traitsIcEEEERNS_13basic_istreamIT_T0_EES7_RS4_, symObjAddr: 0x668C, symBinAddr: 0x10000A1EC, symSize: 0x100 }
  - { offset: 0x10DA3, size: 0x8, addend: 0x0, symName: __ZNSt3__1rsB8ne180100IcNS_11char_traitsIcEENS_9allocatorIcEEEERNS_13basic_istreamIT_T0_EES9_RNS_12basic_stringIS6_S7_T1_EE, symObjAddr: 0x6E68, symBinAddr: 0x10000A9C8, symSize: 0x22C }
  - { offset: 0x116B4, size: 0x8, addend: 0x0, symName: __ZNSt3__120__throw_length_errorB8ne180100EPKc, symObjAddr: 0x7EEC, symBinAddr: 0x10000BA4C, symSize: 0x50 }
  - { offset: 0x116F2, size: 0x8, addend: 0x0, symName: __ZNSt3__116__pad_and_outputB8ne180100IcNS_11char_traitsIcEEEENS_19ostreambuf_iteratorIT_T0_EES6_PKS4_S8_S8_RNS_8ios_baseES4_, symObjAddr: 0x80F0, symBinAddr: 0x10000BC50, symSize: 0x13C }
  - { offset: 0x11CB2, size: 0x8, addend: 0x0, symName: __ZNSt3__119__allocate_at_leastB8ne180100INS_9allocatorI4FoodEEEENS_19__allocation_resultINS_16allocator_traitsIT_E7pointerEEERS6_m, symObjAddr: 0x859C, symBinAddr: 0x10000C0FC, symSize: 0x34 }
  - { offset: 0x11D61, size: 0x8, addend: 0x0, symName: __ZNSt3__142__uninitialized_allocator_move_if_noexceptB8ne180100INS_9allocatorI4FoodEENS_16reverse_iteratorIPS2_EES6_S6_EET2_RT_T0_T1_S7_, symObjAddr: 0x85D0, symBinAddr: 0x10000C130, symSize: 0x94 }
  - { offset: 0x11DB9, size: 0x8, addend: 0x0, symName: __ZNSt3__142__uninitialized_allocator_move_if_noexceptB8ne180100INS_9allocatorI4FoodEENS_16reverse_iteratorIPS2_EES6_S6_EET2_RT_T0_T1_S7_, symObjAddr: 0x85D0, symBinAddr: 0x10000C130, symSize: 0x94 }
  - { offset: 0x12148, size: 0x8, addend: 0x0, symName: __ZNSt3__119__partial_sort_implB8ne180100INS_17_ClassicAlgPolicyERPFbR4FoodS3_EPS2_S7_EET1_S8_S8_T2_OT0_, symObjAddr: 0x8788, symBinAddr: 0x10000C2E8, symSize: 0x134 }
  - { offset: 0x1238C, size: 0x8, addend: 0x0, symName: __ZNSt3__110__pop_heapB8ne180100INS_17_ClassicAlgPolicyEPFbR4FoodS3_EPS2_EEvT1_S7_RT0_NS_15iterator_traitsIS7_E15difference_typeE, symObjAddr: 0x8A8C, symBinAddr: 0x10000C5EC, symSize: 0xCC }
  - { offset: 0x124FA, size: 0x8, addend: 0x0, symName: __ZNSt3__19__sift_upB8ne180100INS_17_ClassicAlgPolicyERPFbR4FoodS3_EPS2_EEvT1_S8_OT0_NS_15iterator_traitsIS8_E15difference_typeE, symObjAddr: 0x8C08, symBinAddr: 0x10000C768, symSize: 0xD4 }
  - { offset: 0x12783, size: 0x8, addend: 0x0, symName: __ZNSt3__17__sort3B8ne180100INS_17_ClassicAlgPolicyERPFbR4FoodS3_EPS2_EEjT1_S8_S8_T0_, symObjAddr: 0x9164, symBinAddr: 0x10000CCC4, symSize: 0xD8 }
  - { offset: 0x128B2, size: 0x8, addend: 0x0, symName: __ZNSt3__116__insertion_sortB8ne180100INS_17_ClassicAlgPolicyERPFbR4FoodS3_EPS2_EEvT1_S8_T0_, symObjAddr: 0x8F9C, symBinAddr: 0x10000CAFC, symSize: 0xF8 }
  - { offset: 0x12993, size: 0x8, addend: 0x0, symName: __ZNSt3__17__sort4B8ne180100INS_17_ClassicAlgPolicyERPFbR4FoodS3_EPS2_EEvT1_S8_S8_S8_T0_, symObjAddr: 0x97AC, symBinAddr: 0x10000D30C, symSize: 0xB4 }
  - { offset: 0x12ACD, size: 0x8, addend: 0x0, symName: __ZNSt3__17__sort5B8ne180100INS_17_ClassicAlgPolicyERPFbR4FoodS3_EPS2_EEvT1_S8_S8_S8_S8_T0_, symObjAddr: 0x9860, symBinAddr: 0x10000D3C0, symSize: 0xDC }
  - { offset: 0x12C75, size: 0x8, addend: 0x0, symName: __ZNSt3__119__allocate_at_leastB8ne180100INS_9allocatorINS_4pairINS_12basic_stringIcNS_11char_traitsIcEENS1_IcEEEES7_EEEEEENS_19__allocation_resultINS_16allocator_traitsIT_E7pointerEEERSC_m, symObjAddr: 0x9B68, symBinAddr: 0x10000D6B4, symSize: 0x44 }
  - { offset: 0x12D24, size: 0x8, addend: 0x0, symName: __ZNSt3__142__uninitialized_allocator_move_if_noexceptB8ne180100INS_9allocatorINS_4pairINS_12basic_stringIcNS_11char_traitsIcEENS1_IcEEEES7_EEEENS_16reverse_iteratorIPS8_EESC_SC_EET2_RT_T0_T1_SD_, symObjAddr: 0x9BAC, symBinAddr: 0x10000D6F8, symSize: 0xA4 }
  - { offset: 0x12D7C, size: 0x8, addend: 0x0, symName: __ZNSt3__142__uninitialized_allocator_move_if_noexceptB8ne180100INS_9allocatorINS_4pairINS_12basic_stringIcNS_11char_traitsIcEENS1_IcEEEES7_EEEENS_16reverse_iteratorIPS8_EESC_SC_EET2_RT_T0_T1_SD_, symObjAddr: 0x9BAC, symBinAddr: 0x10000D6F8, symSize: 0xA4 }
  - { offset: 0x13DCD, size: 0x8, addend: 0x0, symName: __ZSt28__throw_bad_array_new_lengthB8ne180100v, symObjAddr: 0x7F60, symBinAddr: 0x10000BAC0, symSize: 0x28 }
  - { offset: 0x1462C, size: 0x8, addend: 0x0, symName: __ZNSt3__16vectorI4FoodNS_9allocatorIS1_EEE26__swap_out_circular_bufferERNS_14__split_bufferIS1_RS3_EE, symObjAddr: 0x8514, symBinAddr: 0x10000C074, symSize: 0x74 }
  - { offset: 0x14776, size: 0x8, addend: 0x0, symName: __ZNSt3__16vectorINS_4pairINS_12basic_stringIcNS_11char_traitsIcEENS_9allocatorIcEEEES7_EENS5_IS8_EEE26__swap_out_circular_bufferERNS_14__split_bufferIS8_RS9_EE, symObjAddr: 0x9AE0, symBinAddr: 0x10000D640, symSize: 0x74 }
  - { offset: 0x14B26, size: 0x8, addend: 0x0, symName: __Z11toLowerCaseRKNSt3__112basic_stringIcNS_11char_traitsIcEENS_9allocatorIcEEEE, symObjAddr: 0x0, symBinAddr: 0x100003B60, symSize: 0x84 }
  - { offset: 0x15662, size: 0x8, addend: 0x0, symName: __ZN6RunAppC2Ev, symObjAddr: 0x94, symBinAddr: 0x100003BF4, symSize: 0x470 }
  - { offset: 0x15CE3, size: 0x8, addend: 0x0, symName: __ZNSt3__113basic_fstreamIcNS_11char_traitsIcEEED1Ev, symObjAddr: 0x504, symBinAddr: 0x100004064, symSize: 0xA8 }
  - { offset: 0x15D1C, size: 0x8, addend: 0x0, symName: __ZNSt3__16vectorINS_4pairINS_12basic_stringIcNS_11char_traitsIcEENS_9allocatorIcEEEES7_EENS5_IS8_EEE16__destroy_vectorclB8ne180100Ev, symObjAddr: 0x8354, symBinAddr: 0x10000BEB4, symSize: 0x40 }
  - { offset: 0x15E11, size: 0x8, addend: 0x0, symName: __ZNSt3__16vectorI4FoodNS_9allocatorIS1_EEE16__destroy_vectorclB8ne180100Ev, symObjAddr: 0x82D4, symBinAddr: 0x10000BE34, symSize: 0x40 }
  - { offset: 0x15F28, size: 0x8, addend: 0x0, symName: __ZN6RunAppC1Ev, symObjAddr: 0x5AC, symBinAddr: 0x10000410C, symSize: 0x4 }
  - { offset: 0x15F4B, size: 0x8, addend: 0x0, symName: __ZN6RunAppC1Ev, symObjAddr: 0x5AC, symBinAddr: 0x10000410C, symSize: 0x4 }
  - { offset: 0x15F78, size: 0x8, addend: 0x0, symName: __ZN6RunAppD2Ev, symObjAddr: 0x5B0, symBinAddr: 0x100004110, symSize: 0x3E0 }
  - { offset: 0x165FC, size: 0x8, addend: 0x0, symName: __ZN6RunAppD1Ev, symObjAddr: 0x990, symBinAddr: 0x1000044F0, symSize: 0x4 }
  - { offset: 0x1661F, size: 0x8, addend: 0x0, symName: __ZN6RunAppD1Ev, symObjAddr: 0x990, symBinAddr: 0x1000044F0, symSize: 0x4 }
  - { offset: 0x1677C, size: 0x8, addend: 0x0, symName: __ZN6RunApp7RunGameEv, symObjAddr: 0x994, symBinAddr: 0x1000044F4, symSize: 0x1E8 }
  - { offset: 0x16AC1, size: 0x8, addend: 0x0, symName: __ZN6RunApp25writeToDatesAndMacrosFileEv, symObjAddr: 0xB7C, symBinAddr: 0x1000046DC, symSize: 0x314 }
  - { offset: 0x1753A, size: 0x8, addend: 0x0, symName: __ZN6RunApp22readDatesAndMacrosFileEv, symObjAddr: 0xE90, symBinAddr: 0x1000049F0, symSize: 0x234 }
  - { offset: 0x17E4E, size: 0x8, addend: 0x0, symName: __ZN6RunApp14readMacroGoalsEv, symObjAddr: 0x10C4, symBinAddr: 0x100004C24, symSize: 0x444 }
  - { offset: 0x191ED, size: 0x8, addend: 0x0, symName: __ZN6RunApp8readFileEv, symObjAddr: 0x1508, symBinAddr: 0x100005068, symSize: 0x4EC }
  - { offset: 0x1AFB5, size: 0x8, addend: 0x0, symName: __ZN6RunApp15loadDailyMacrosEv, symObjAddr: 0x19F4, symBinAddr: 0x100005554, symSize: 0x300 }
  - { offset: 0x1C22E, size: 0x8, addend: 0x0, symName: __ZN6RunApp9printMenuEv, symObjAddr: 0x1CF4, symBinAddr: 0x100005854, symSize: 0xB88 }
  - { offset: 0x1D51B, size: 0x8, addend: 0x0, symName: __ZN6RunApp9getChoiceEv, symObjAddr: 0x287C, symBinAddr: 0x1000063DC, symSize: 0x140 }
  - { offset: 0x1D654, size: 0x8, addend: 0x0, symName: __ZN6RunApp19calculateFoodMacrosEv, symObjAddr: 0x29BC, symBinAddr: 0x10000651C, symSize: 0x76C }
  - { offset: 0x1EF39, size: 0x8, addend: 0x0, symName: __ZN6RunApp15printMacrosListEv, symObjAddr: 0x3128, symBinAddr: 0x100006C88, symSize: 0x2B0 }
  - { offset: 0x1F5E6, size: 0x8, addend: 0x0, symName: __ZN6RunApp19addFoodToDictionaryEv, symObjAddr: 0x3588, symBinAddr: 0x1000070E8, symSize: 0x314 }
  - { offset: 0x20010, size: 0x8, addend: 0x0, symName: __ZN6RunApp21printFoodAteInSessionEv, symObjAddr: 0x5478, symBinAddr: 0x100008FD8, symSize: 0xD8 }
  - { offset: 0x20155, size: 0x8, addend: 0x0, symName: __ZN6RunApp26printTotalFoodAteInSessionEv, symObjAddr: 0x5550, symBinAddr: 0x1000090B0, symSize: 0x184 }
  - { offset: 0x203B9, size: 0x8, addend: 0x0, symName: __ZN6RunApp14editMacroGoalsEv, symObjAddr: 0x5CE0, symBinAddr: 0x100009840, symSize: 0x16C }
  - { offset: 0x2053C, size: 0x8, addend: 0x0, symName: __ZN6RunApp16printTotalMacrosEv, symObjAddr: 0x33D8, symBinAddr: 0x100006F38, symSize: 0x1B0 }
  - { offset: 0x20830, size: 0x8, addend: 0x0, symName: __ZN6RunApp15printDictionaryEv, symObjAddr: 0x389C, symBinAddr: 0x1000073FC, symSize: 0x544 }
  - { offset: 0x2134B, size: 0x8, addend: 0x0, symName: __ZN6RunApp14saveDictionaryEv, symObjAddr: 0x3DE0, symBinAddr: 0x100007940, symSize: 0x240 }
  - { offset: 0x21940, size: 0x8, addend: 0x0, symName: __ZN6RunApp10writeToLogEv, symObjAddr: 0x4020, symBinAddr: 0x100007B80, symSize: 0x898 }
  - { offset: 0x2395A, size: 0x8, addend: 0x0, symName: __ZN6RunApp8editFoodEv, symObjAddr: 0x48B8, symBinAddr: 0x100008418, symSize: 0x928 }
  - { offset: 0x2541D, size: 0x8, addend: 0x0, symName: __ZN6RunApp9QuickFoodEv, symObjAddr: 0x51E0, symBinAddr: 0x100008D40, symSize: 0x298 }
  - { offset: 0x25D4E, size: 0x8, addend: 0x0, symName: __ZN6RunApp19printDatesAndMacrosEv, symObjAddr: 0x56D4, symBinAddr: 0x100009234, symSize: 0x174 }
  - { offset: 0x2605F, size: 0x8, addend: 0x0, symName: __ZN6RunApp13printAveragesEv, symObjAddr: 0x5848, symBinAddr: 0x1000093A8, symSize: 0x498 }
  - { offset: 0x27694, size: 0x8, addend: 0x0, symName: __ZN6RunApp15printMacroGoalsEv, symObjAddr: 0x5E4C, symBinAddr: 0x1000099AC, symSize: 0x130 }
  - { offset: 0x2784B, size: 0x8, addend: 0x0, symName: __ZNSt3__16vectorI4FoodNS_9allocatorIS1_EEE21__push_back_slow_pathIRKS1_EEPS1_OT_, symObjAddr: 0x842C, symBinAddr: 0x10000BF8C, symSize: 0xE8 }
  - { offset: 0x27C4F, size: 0x8, addend: 0x0, symName: __ZN6RunApp7isTodayEv, symObjAddr: 0x69F0, symBinAddr: 0x10000A550, symSize: 0x158 }
  - { offset: 0x28322, size: 0x8, addend: 0x0, symName: __ZNSt3__112basic_stringIcNS_11char_traitsIcEENS_9allocatorIcEEEC2B8ne180100ILi0EEEPKc, symObjAddr: 0x86D8, symBinAddr: 0x10000C238, symSize: 0xB0 }
  - { offset: 0x286DC, size: 0x8, addend: 0x0, symName: __ZNSt3__119__partial_sort_implB8ne180100INS_17_ClassicAlgPolicyERPFbR4FoodS3_EPS2_S7_EET1_S8_S8_T2_OT0_, symObjAddr: 0x8788, symBinAddr: 0x10000C2E8, symSize: 0x134 }
  - { offset: 0x286F4, size: 0x8, addend: 0x0, symName: __ZNSt3__113basic_fstreamIcNS_11char_traitsIcEEE4openEPKcj, symObjAddr: 0x6198, symBinAddr: 0x100009CF8, symSize: 0x48 }
  - { offset: 0x28952, size: 0x8, addend: 0x0, symName: __ZNSt3__14pairINS_12basic_stringIcNS_11char_traitsIcEENS_9allocatorIcEEEES6_EC2B8ne180100ERKS6_S9_, symObjAddr: 0x9A4C, symBinAddr: 0x10000D5AC, symSize: 0x94 }
  - { offset: 0x28BDB, size: 0x8, addend: 0x0, symName: __ZNSt3__16vectorINS_4pairINS_12basic_stringIcNS_11char_traitsIcEENS_9allocatorIcEEEES7_EENS5_IS8_EEE24__emplace_back_slow_pathIJRS7_SC_EEEPS8_DpOT_, symObjAddr: 0x993C, symBinAddr: 0x10000D49C, symSize: 0x110 }
  - { offset: 0x28F7C, size: 0x8, addend: 0x0, symName: __ZNSt3__118basic_stringstreamIcNS_11char_traitsIcEENS_9allocatorIcEEEC1B8ne180100ERKNS_12basic_stringIcS2_S4_EEj, symObjAddr: 0x71F0, symBinAddr: 0x10000AD50, symSize: 0x124 }
  - { offset: 0x290B8, size: 0x8, addend: 0x0, symName: __ZNSt3__118basic_stringstreamIcNS_11char_traitsIcEENS_9allocatorIcEEED1Ev, symObjAddr: 0x7314, symBinAddr: 0x10000AE74, symSize: 0xB8 }
  - { offset: 0x292CA, size: 0x8, addend: 0x0, symName: __ZNSt3__112basic_stringIcNS_11char_traitsIcEENS_9allocatorIcEEE25__init_copy_ctor_externalEPKcm, symObjAddr: 0x7E4C, symBinAddr: 0x10000B9AC, symSize: 0x8C }
  - { offset: 0x29647, size: 0x8, addend: 0x0, symName: __ZNKSt3__112basic_stringIcNS_11char_traitsIcEENS_9allocatorIcEEE20__throw_length_errorB8ne180100Ev, symObjAddr: 0x7ED8, symBinAddr: 0x10000BA38, symSize: 0x14 }
  - { offset: 0x29659, size: 0x8, addend: 0x0, symName: __ZlsRNSt3__113basic_ostreamIcNS_11char_traitsIcEEEERK6Macros, symObjAddr: 0x5F7C, symBinAddr: 0x100009ADC, symSize: 0x84 }
  - { offset: 0x2977F, size: 0x8, addend: 0x0, symName: __ZN6RunApp27printMacrosLeftUntilDayGoalEv, symObjAddr: 0x6000, symBinAddr: 0x100009B60, symSize: 0x198 }
  - { offset: 0x29982, size: 0x8, addend: 0x0, symName: __ZN6RunApp19addFoodToDictionaryENSt3__112basic_stringIcNS0_11char_traitsIcEENS0_9allocatorIcEEEE, symObjAddr: 0x678C, symBinAddr: 0x10000A2EC, symSize: 0x264 }
  - { offset: 0x29FFF, size: 0x8, addend: 0x0, symName: __ZlsRNSt3__113basic_ostreamIcNS_11char_traitsIcEEEERK4Food, symObjAddr: 0x6538, symBinAddr: 0x10000A098, symSize: 0x154 }
  - { offset: 0x2A317, size: 0x8, addend: 0x0, symName: __ZN6RunApp15writeToDailyLogEv, symObjAddr: 0x6B48, symBinAddr: 0x10000A6A8, symSize: 0x320 }
  - { offset: 0x2ADDD, size: 0x8, addend: 0x0, symName: __ZN6RunApp13setMacroGoalsE6Macros, symObjAddr: 0x73CC, symBinAddr: 0x10000AF2C, symSize: 0x318 }
  - { offset: 0x2C499, size: 0x8, addend: 0x0, symName: __Z13compareByNameR4FoodS0_, symObjAddr: 0x6364, symBinAddr: 0x100009EC4, symSize: 0xEC }
  - { offset: 0x2C943, size: 0x8, addend: 0x0, symName: __Z17compareByCaloriesR4FoodS0_, symObjAddr: 0x6450, symBinAddr: 0x100009FB0, symSize: 0x34 }
  - { offset: 0x2C982, size: 0x8, addend: 0x0, symName: __Z16compareByProteinR4FoodS0_, symObjAddr: 0x6484, symBinAddr: 0x100009FE4, symSize: 0x3C }
  - { offset: 0x2C9C0, size: 0x8, addend: 0x0, symName: __Z14compareByCarbsR4FoodS0_, symObjAddr: 0x64C0, symBinAddr: 0x10000A020, symSize: 0x3C }
  - { offset: 0x2C9FF, size: 0x8, addend: 0x0, symName: __Z13compareByFatsR4FoodS0_, symObjAddr: 0x64FC, symBinAddr: 0x10000A05C, symSize: 0x3C }
  - { offset: 0x2CA3F, size: 0x8, addend: 0x0, symName: __ZN6RunApp18isTodayForDayFoodsEv, symObjAddr: 0x7094, symBinAddr: 0x10000ABF4, symSize: 0x15C }
  - { offset: 0x2D1F3, size: 0x8, addend: 0x0, symName: __ZNSt3__115basic_stringbufIcNS_11char_traitsIcEENS_9allocatorIcEEEC2B8ne180100ERKNS_12basic_stringIcS2_S4_EEj, symObjAddr: 0x9D5C, symBinAddr: 0x10000D8A8, symSize: 0x94 }
  - { offset: 0x2D3F4, size: 0x8, addend: 0x0, symName: __ZN6RunApp12printDetailsEv, symObjAddr: 0x76E4, symBinAddr: 0x10000B244, symSize: 0x4C4 }
  - { offset: 0x2DAC2, size: 0x8, addend: 0x0, symName: _main, symObjAddr: 0x7BA8, symBinAddr: 0x10000B708, symSize: 0x94 }
  - { offset: 0x2DBB0, size: 0x8, addend: 0x0, symName: __ZThn16_NSt3__113basic_fstreamIcNS_11char_traitsIcEEED1Ev, symObjAddr: 0x7C3C, symBinAddr: 0x10000B79C, symSize: 0x98 }
  - { offset: 0x2DBFC, size: 0x8, addend: 0x0, symName: __ZTv0_n24_NSt3__113basic_fstreamIcNS_11char_traitsIcEEED1Ev, symObjAddr: 0x7CD4, symBinAddr: 0x10000B834, symSize: 0xA8 }
  - { offset: 0x2DC48, size: 0x8, addend: 0x0, symName: __ZNSt3__113basic_fstreamIcNS_11char_traitsIcEEED0Ev, symObjAddr: 0x7D7C, symBinAddr: 0x10000B8DC, symSize: 0xB8 }
  - { offset: 0x2DCC4, size: 0x8, addend: 0x0, symName: __ZThn16_NSt3__113basic_fstreamIcNS_11char_traitsIcEEED0Ev, symObjAddr: 0x7E34, symBinAddr: 0x10000B994, symSize: 0x8 }
  - { offset: 0x2DCE9, size: 0x8, addend: 0x0, symName: __ZTv0_n24_NSt3__113basic_fstreamIcNS_11char_traitsIcEEED0Ev, symObjAddr: 0x7E3C, symBinAddr: 0x10000B99C, symSize: 0x10 }
  - { offset: 0x2DE94, size: 0x8, addend: 0x0, symName: __ZNKSt3__112basic_stringIcNS_11char_traitsIcEENS_9allocatorIcEEE20__throw_length_errorB8ne180100Ev, symObjAddr: 0x7ED8, symBinAddr: 0x10000BA38, symSize: 0x14 }
  - { offset: 0x2DEBD, size: 0x8, addend: 0x0, symName: __ZNSt3__120__throw_length_errorB8ne180100EPKc, symObjAddr: 0x7EEC, symBinAddr: 0x10000BA4C, symSize: 0x50 }
  - { offset: 0x2DEC8, size: 0x8, addend: 0x0, symName: __ZNSt12length_errorC1B8ne180100EPKc, symObjAddr: 0x7F3C, symBinAddr: 0x10000BA9C, symSize: 0x24 }
  - { offset: 0x2E05A, size: 0x8, addend: 0x0, symName: __ZNSt3__112basic_stringIcNS_11char_traitsIcEENS_9allocatorIcEEEC2B8ne180100Emc, symObjAddr: 0x822C, symBinAddr: 0x10000BD8C, symSize: 0xA8 }
  - { offset: 0x2E2AF, size: 0x8, addend: 0x0, symName: __ZNSt3__16vectorI4FoodNS_9allocatorIS1_EEE16__destroy_vectorclB8ne180100Ev, symObjAddr: 0x82D4, symBinAddr: 0x10000BE34, symSize: 0x40 }
  - { offset: 0x2E3A7, size: 0x8, addend: 0x0, symName: __ZNSt3__16vectorI4FoodNS_9allocatorIS1_EEE22__base_destruct_at_endB8ne180100EPS1_, symObjAddr: 0x8314, symBinAddr: 0x10000BE74, symSize: 0x40 }
  - { offset: 0x2E4F6, size: 0x8, addend: 0x0, symName: __ZNSt3__16vectorINS_4pairINS_12basic_stringIcNS_11char_traitsIcEENS_9allocatorIcEEEES7_EENS5_IS8_EEE22__base_destruct_at_endB8ne180100EPS8_, symObjAddr: 0x8394, symBinAddr: 0x10000BEF4, symSize: 0x54 }
  - { offset: 0x2E5A8, size: 0x8, addend: 0x0, symName: __ZNSt3__19allocatorINS_4pairINS_12basic_stringIcNS_11char_traitsIcEENS0_IcEEEES6_EEE7destroyB8ne180100EPS7_, symObjAddr: 0x83E8, symBinAddr: 0x10000BF48, symSize: 0x44 }
  - { offset: 0x2EA52, size: 0x8, addend: 0x0, symName: __ZNSt3__114__split_bufferI4FoodRNS_9allocatorIS1_EEED2Ev, symObjAddr: 0x8664, symBinAddr: 0x10000C1C4, symSize: 0x34 }
  - { offset: 0x2EB54, size: 0x8, addend: 0x0, symName: __ZNKSt3__16vectorI4FoodNS_9allocatorIS1_EEE20__throw_length_errorB8ne180100Ev, symObjAddr: 0x8588, symBinAddr: 0x10000C0E8, symSize: 0x14 }
  - { offset: 0x2EB7D, size: 0x8, addend: 0x0, symName: __ZNSt3__119__allocate_at_leastB8ne180100INS_9allocatorI4FoodEEEENS_19__allocation_resultINS_16allocator_traitsIT_E7pointerEEERS6_m, symObjAddr: 0x859C, symBinAddr: 0x10000C0FC, symSize: 0x34 }
  - { offset: 0x2EC53, size: 0x8, addend: 0x0, symName: __ZNSt3__114__split_bufferI4FoodRNS_9allocatorIS1_EEE17__destruct_at_endB8ne180100EPS1_, symObjAddr: 0x8698, symBinAddr: 0x10000C1F8, symSize: 0x40 }
  - { offset: 0x2ED5B, size: 0x8, addend: 0x0, symName: __ZNSt3__18_IterOpsINS_17_ClassicAlgPolicyEE9iter_swapB8ne180100IRP4FoodS6_EEvOT_OT0_, symObjAddr: 0x88BC, symBinAddr: 0x10000C41C, symSize: 0x6C }
  - { offset: 0x2EDF0, size: 0x8, addend: 0x0, symName: __ZNSt3__18_IterOpsINS_17_ClassicAlgPolicyEE9iter_swapB8ne180100IRP4FoodS5_EEvOT_OT0_, symObjAddr: 0x923C, symBinAddr: 0x10000CD9C, symSize: 0x6C }
  - { offset: 0x2F031, size: 0x8, addend: 0x0, symName: __ZNSt3__114__split_bufferINS_4pairINS_12basic_stringIcNS_11char_traitsIcEENS_9allocatorIcEEEES7_EERNS5_IS8_EEED2Ev, symObjAddr: 0x9CE4, symBinAddr: 0x10000D830, symSize: 0x34 }
  - { offset: 0x2F14A, size: 0x8, addend: 0x0, symName: __ZNSt3__119__allocate_at_leastB8ne180100INS_9allocatorINS_4pairINS_12basic_stringIcNS_11char_traitsIcEENS1_IcEEEES7_EEEEEENS_19__allocation_resultINS_16allocator_traitsIT_E7pointerEEERSC_m, symObjAddr: 0x9B68, symBinAddr: 0x10000D6B4, symSize: 0x44 }
  - { offset: 0x2F2B4, size: 0x8, addend: 0x0, symName: __ZNSt3__14pairINS_12basic_stringIcNS_11char_traitsIcEENS_9allocatorIcEEEES6_EC2B8ne180100ERKS7_, symObjAddr: 0x9C50, symBinAddr: 0x10000D79C, symSize: 0x94 }
  - { offset: 0x2F521, size: 0x8, addend: 0x0, symName: __ZNSt3__114__split_bufferINS_4pairINS_12basic_stringIcNS_11char_traitsIcEENS_9allocatorIcEEEES7_EERNS5_IS8_EEE17__destruct_at_endB8ne180100EPS8_, symObjAddr: 0x9D18, symBinAddr: 0x10000D864, symSize: 0x44 }
  - { offset: 0x2F691, size: 0x8, addend: 0x0, symName: __ZNSt3__115basic_stringbufIcNS_11char_traitsIcEENS_9allocatorIcEEE15__init_buf_ptrsB8ne180100Ev, symObjAddr: 0x9DF0, symBinAddr: 0x10000D93C, symSize: 0x110 }
  - { offset: 0x315A0, size: 0x8, addend: 0x0, symName: __ZN4FoodC2Ev, symObjAddr: 0x0, symBinAddr: 0x10000DA4C, symSize: 0x60 }
  - { offset: 0x35BB5, size: 0x8, addend: 0x0, symName: __ZN4FoodC2Ev, symObjAddr: 0x0, symBinAddr: 0x10000DA4C, symSize: 0x60 }
  - { offset: 0x35DBB, size: 0x8, addend: 0x0, symName: __ZN4FoodC1Ev, symObjAddr: 0x60, symBinAddr: 0x10000DAAC, symSize: 0x4 }
  - { offset: 0x35DE8, size: 0x8, addend: 0x0, symName: __ZN4FoodC1Ev, symObjAddr: 0x60, symBinAddr: 0x10000DAAC, symSize: 0x4 }
  - { offset: 0x35DFB, size: 0x8, addend: 0x0, symName: __ZN4FoodD2Ev, symObjAddr: 0x64, symBinAddr: 0x10000DAB0, symSize: 0x30 }
  - { offset: 0x35F61, size: 0x8, addend: 0x0, symName: __ZN4FoodC2ERKS_, symObjAddr: 0xC4, symBinAddr: 0x10000DAE0, symSize: 0x6C }
  - { offset: 0x36141, size: 0x8, addend: 0x0, symName: __ZN4FoodC1ERKS_, symObjAddr: 0x130, symBinAddr: 0x10000DB4C, symSize: 0x4 }
  - { offset: 0x3617A, size: 0x8, addend: 0x0, symName: __ZN4FoodC1ERKS_, symObjAddr: 0x130, symBinAddr: 0x10000DB4C, symSize: 0x4 }
  - { offset: 0x361F4, size: 0x8, addend: 0x0, symName: __ZN4Food7getNameEv, symObjAddr: 0x134, symBinAddr: 0x10000DB50, symSize: 0x28 }
  - { offset: 0x36258, size: 0x8, addend: 0x0, symName: __ZN4Food7getNameEv, symObjAddr: 0x134, symBinAddr: 0x10000DB50, symSize: 0x28 }
  - { offset: 0x364DB, size: 0x8, addend: 0x0, symName: __ZN4Food8getGramsEv, symObjAddr: 0x15C, symBinAddr: 0x10000DB78, symSize: 0x8 }
  - { offset: 0x36502, size: 0x8, addend: 0x0, symName: __ZN4Food6getCalEv, symObjAddr: 0x164, symBinAddr: 0x10000DB80, symSize: 0x8 }
  - { offset: 0x36529, size: 0x8, addend: 0x0, symName: __ZN4Food6getFatEv, symObjAddr: 0x16C, symBinAddr: 0x10000DB88, symSize: 0x8 }
  - { offset: 0x3654E, size: 0x8, addend: 0x0, symName: __ZN4Food7getCarbEv, symObjAddr: 0x174, symBinAddr: 0x10000DB90, symSize: 0x8 }
  - { offset: 0x36573, size: 0x8, addend: 0x0, symName: __ZN4Food10getProteinEv, symObjAddr: 0x17C, symBinAddr: 0x10000DB98, symSize: 0x8 }
  - { offset: 0x36598, size: 0x8, addend: 0x0, symName: __ZN4Food11getServingsEv, symObjAddr: 0x184, symBinAddr: 0x10000DBA0, symSize: 0x8 }
  - { offset: 0x365BF, size: 0x8, addend: 0x0, symName: __ZN4Food7setNameENSt3__112basic_stringIcNS0_11char_traitsIcEENS0_9allocatorIcEEEE, symObjAddr: 0x18C, symBinAddr: 0x10000DBA8, symSize: 0x4 }
  - { offset: 0x365F2, size: 0x8, addend: 0x0, symName: __ZN4Food8setGramsEi, symObjAddr: 0x190, symBinAddr: 0x10000DBAC, symSize: 0x8 }
  - { offset: 0x36624, size: 0x8, addend: 0x0, symName: __ZN4Food6setCalEi, symObjAddr: 0x198, symBinAddr: 0x10000DBB4, symSize: 0x8 }
  - { offset: 0x36656, size: 0x8, addend: 0x0, symName: __ZN4Food6setFatEd, symObjAddr: 0x1A0, symBinAddr: 0x10000DBBC, symSize: 0x8 }
  - { offset: 0x36689, size: 0x8, addend: 0x0, symName: __ZN4Food7setCarbEd, symObjAddr: 0x1A8, symBinAddr: 0x10000DBC4, symSize: 0x8 }
  - { offset: 0x366BC, size: 0x8, addend: 0x0, symName: __ZN4Food10setProteinEd, symObjAddr: 0x1B0, symBinAddr: 0x10000DBCC, symSize: 0x8 }
  - { offset: 0x366EF, size: 0x8, addend: 0x0, symName: __ZN4Food11setServingsEi, symObjAddr: 0x1B8, symBinAddr: 0x10000DBD4, symSize: 0x8 }
  - { offset: 0x36722, size: 0x8, addend: 0x0, symName: __ZN4FoodaSERKS_, symObjAddr: 0x1C0, symBinAddr: 0x10000DBDC, symSize: 0x5C }
...
